; ModuleID = '36/71.c'
source_filename = "36/71.c"
target datalayout = "e-m:e-p270:32:32-p271:32:32-p272:64:64-i64:64-f80:128-n8:16:32:64-S128"
target triple = "x86_64-pc-linux-gnu"

@.str = private unnamed_addr constant [5 x i8] c"%s%s\00", align 1
@.str.1 = private unnamed_addr constant [3 x i8] c"NO\00", align 1
@.str.2 = private unnamed_addr constant [4 x i8] c"YES\00", align 1

; Function Attrs: noinline nounwind uwtable
define dso_local i32 @main() #0 {
  %1 = alloca i32, align 4
  %2 = alloca [100 x i8], align 16
  %3 = alloca [100 x i8], align 16
  %4 = alloca i8, align 1
  %5 = alloca i32, align 4
  %6 = alloca i32, align 4
  %7 = alloca i32, align 4
  %8 = alloca i32, align 4
  store i32 0, i32* %1, align 4
  %9 = getelementptr inbounds [100 x i8], [100 x i8]* %2, i64 0, i64 0
  %10 = getelementptr inbounds [100 x i8], [100 x i8]* %3, i64 0, i64 0
  %11 = call i32 (i8*, ...) @__isoc99_scanf(i8* getelementptr inbounds ([5 x i8], [5 x i8]* @.str, i64 0, i64 0), i8* %9, i8* %10)
  %12 = getelementptr inbounds [100 x i8], [100 x i8]* %2, i64 0, i64 0
  %13 = call i64 @strlen(i8* %12) #3
  %14 = trunc i64 %13 to i32
  store i32 %14, i32* %5, align 4
  %15 = getelementptr inbounds [100 x i8], [100 x i8]* %3, i64 0, i64 0
  %16 = call i64 @strlen(i8* %15) #3
  %17 = trunc i64 %16 to i32
  store i32 %17, i32* %6, align 4
  %18 = load i32, i32* %5, align 4
  %19 = load i32, i32* %6, align 4
  %20 = icmp ne i32 %18, %19
  br i1 %20, label %21, label %23

21:                                               ; preds = %0
  %22 = call i32 (i8*, ...) @printf(i8* getelementptr inbounds ([3 x i8], [3 x i8]* @.str.1, i64 0, i64 0))
  br label %118

23:                                               ; preds = %0
  store i32 0, i32* %7, align 4
  br label %24

24:                                               ; preds = %85, %23
  %25 = load i32, i32* %7, align 4
  %26 = load i32, i32* %5, align 4
  %27 = icmp slt i32 %25, %26
  br i1 %27, label %28, label %88

28:                                               ; preds = %24
  %29 = load i32, i32* %7, align 4
  store i32 %29, i32* %8, align 4
  br label %30

30:                                               ; preds = %63, %28
  %31 = load i32, i32* %8, align 4
  %32 = load i32, i32* %5, align 4
  %33 = icmp slt i32 %31, %32
  br i1 %33, label %34, label %66

34:                                               ; preds = %30
  %35 = load i32, i32* %7, align 4
  %36 = sext i32 %35 to i64
  %37 = getelementptr inbounds [100 x i8], [100 x i8]* %2, i64 0, i64 %36
  %38 = load i8, i8* %37, align 1
  %39 = sext i8 %38 to i32
  %40 = load i32, i32* %8, align 4
  %41 = sext i32 %40 to i64
  %42 = getelementptr inbounds [100 x i8], [100 x i8]* %3, i64 0, i64 %41
  %43 = load i8, i8* %42, align 1
  %44 = sext i8 %43 to i32
  %45 = icmp eq i32 %39, %44
  br i1 %45, label %46, label %62

46:                                               ; preds = %34
  %47 = load i32, i32* %7, align 4
  %48 = sext i32 %47 to i64
  %49 = getelementptr inbounds [100 x i8], [100 x i8]* %3, i64 0, i64 %48
  %50 = load i8, i8* %49, align 1
  store i8 %50, i8* %4, align 1
  %51 = load i32, i32* %8, align 4
  %52 = sext i32 %51 to i64
  %53 = getelementptr inbounds [100 x i8], [100 x i8]* %3, i64 0, i64 %52
  %54 = load i8, i8* %53, align 1
  %55 = load i32, i32* %7, align 4
  %56 = sext i32 %55 to i64
  %57 = getelementptr inbounds [100 x i8], [100 x i8]* %3, i64 0, i64 %56
  store i8 %54, i8* %57, align 1
  %58 = load i8, i8* %4, align 1
  %59 = load i32, i32* %8, align 4
  %60 = sext i32 %59 to i64
  %61 = getelementptr inbounds [100 x i8], [100 x i8]* %3, i64 0, i64 %60
  store i8 %58, i8* %61, align 1
  br label %66

62:                                               ; preds = %34
  br label %63

63:                                               ; preds = %62
  %64 = load i32, i32* %8, align 4
  %65 = add nsw i32 %64, 1
  store i32 %65, i32* %8, align 4
  br label %30

66:                                               ; preds = %46, %30
  %67 = load i32, i32* %7, align 4
  %68 = sext i32 %67 to i64
  %69 = getelementptr inbounds [100 x i8], [100 x i8]* %2, i64 0, i64 %68
  %70 = load i8, i8* %69, align 1
  %71 = sext i8 %70 to i32
  %72 = load i32, i32* %7, align 4
  %73 = sext i32 %72 to i64
  %74 = getelementptr inbounds [100 x i8], [100 x i8]* %3, i64 0, i64 %73
  %75 = load i8, i8* %74, align 1
  %76 = sext i8 %75 to i32
  %77 = icmp ne i32 %71, %76
  br i1 %77, label %78, label %84

78:                                               ; preds = %66
  %79 = load i32, i32* %8, align 4
  %80 = load i32, i32* %5, align 4
  %81 = icmp eq i32 %79, %80
  br i1 %81, label %82, label %84

82:                                               ; preds = %78
  %83 = call i32 (i8*, ...) @printf(i8* getelementptr inbounds ([3 x i8], [3 x i8]* @.str.1, i64 0, i64 0))
  br label %88

84:                                               ; preds = %78, %66
  br label %85

85:                                               ; preds = %84
  %86 = load i32, i32* %7, align 4
  %87 = add nsw i32 %86, 1
  store i32 %87, i32* %7, align 4
  br label %24

88:                                               ; preds = %82, %24
  store i32 0, i32* %7, align 4
  br label %89

89:                                               ; preds = %108, %88
  %90 = load i32, i32* %7, align 4
  %91 = load i32, i32* %5, align 4
  %92 = icmp slt i32 %90, %91
  br i1 %92, label %93, label %111

93:                                               ; preds = %89
  %94 = load i32, i32* %7, align 4
  %95 = sext i32 %94 to i64
  %96 = getelementptr inbounds [100 x i8], [100 x i8]* %2, i64 0, i64 %95
  %97 = load i8, i8* %96, align 1
  %98 = sext i8 %97 to i32
  %99 = load i32, i32* %7, align 4
  %100 = sext i32 %99 to i64
  %101 = getelementptr inbounds [100 x i8], [100 x i8]* %3, i64 0, i64 %100
  %102 = load i8, i8* %101, align 1
  %103 = sext i8 %102 to i32
  %104 = icmp ne i32 %98, %103
  br i1 %104, label %105, label %107

105:                                              ; preds = %93
  %106 = call i32 (i8*, ...) @printf(i8* getelementptr inbounds ([3 x i8], [3 x i8]* @.str.1, i64 0, i64 0))
  br label %111

107:                                              ; preds = %93
  br label %108

108:                                              ; preds = %107
  %109 = load i32, i32* %7, align 4
  %110 = add nsw i32 %109, 1
  store i32 %110, i32* %7, align 4
  br label %89

111:                                              ; preds = %105, %89
  %112 = load i32, i32* %7, align 4
  %113 = load i32, i32* %5, align 4
  %114 = icmp eq i32 %112, %113
  br i1 %114, label %115, label %117

115:                                              ; preds = %111
  %116 = call i32 (i8*, ...) @printf(i8* getelementptr inbounds ([4 x i8], [4 x i8]* @.str.2, i64 0, i64 0))
  br label %117

117:                                              ; preds = %115, %111
  br label %118

118:                                              ; preds = %117, %21
  ret i32 0
}

declare dso_local i32 @__isoc99_scanf(i8*, ...) #1

; Function Attrs: nounwind readonly
declare dso_local i64 @strlen(i8*) #2

declare dso_local i32 @printf(i8*, ...) #1


!llvm.module.flags = !{!0}
!llvm.ident = !{!1}

!0 = !{i32 1, !"wchar_size", i32 4}
!1 = !{!"clang version 10.0.0-4ubuntu1 "}
